(dp0
S'sdfas'
p1
(dp2
S'digit4attempted'
p3
I0
sS'digit8attempted'
p4
I1
sS'digit7attempted'
p5
I0
sS'digit2attempted'
p6
I0
sS'digit6attempted'
p7
I0
sS'digit5attempted'
p8
I0
sS'digit0attempted'
p9
I0
sS'logins'
p10
(dp11
S'attempts'
p12
I1
ssS'digit9attempted'
p13
I0
sS'digit3attempted'
p14
I0
sS'time'
p15
(dp16
S'total1time'
p17
I0
sS'mean4time'
p18
I0
sS'mean5time'
p19
I0
sS'mean2time'
p20
I0
sS'total9time'
p21
I0
sS'mean0time'
p22
I0
sS'total3time'
p23
I0
sS'total5time'
p24
I0
sS'mean8time'
p25
F11.203527927398682
sS'mean7time'
p26
I0
sS'total2time'
p27
I0
sS'mean9time'
p28
I0
sS'total4time'
p29
I0
sS'mean6time'
p30
I0
sS'total0time'
p31
I0
sS'total7time'
p32
I0
sS'mean1time'
p33
I0
sS'mean3time'
p34
I0
sS'total6time'
p35
I0
sS'total8time'
p36
F11.203527927398682
ssS'digit1attempted'
p37
I0
sS'digit10attempted'
p38
I0
ssS'fas'
p39
(dp40
S'digit4attempted'
p41
I0
sS'digit8attempted'
p42
I1
sS'digit7attempted'
p43
I0
sS'digit2attempted'
p44
I0
sS'digit6attempted'
p45
I0
sS'digit5attempted'
p46
I0
sS'digit0attempted'
p47
I0
sS'logins'
p48
(dp49
S'attempts'
p50
I1
ssS'digit9attempted'
p51
I0
sS'digit3attempted'
p52
I0
sS'time'
p53
(dp54
S'total1time'
p55
I0
sS'mean4time'
p56
I0
sS'mean5time'
p57
I0
sS'mean2time'
p58
I0
sS'total9time'
p59
I0
sS'mean0time'
p60
I0
sS'total3time'
p61
I0
sS'total5time'
p62
I0
sS'mean8time'
p63
F14.6217041015625
sS'mean7time'
p64
I0
sS'total2time'
p65
I0
sS'mean9time'
p66
I0
sS'total4time'
p67
I0
sS'mean6time'
p68
I0
sS'total0time'
p69
I0
sS'total7time'
p70
I0
sS'mean1time'
p71
I0
sS'mean3time'
p72
I0
sS'total6time'
p73
I0
sS'total8time'
p74
F14.6217041015625
ssS'digit1attempted'
p75
I0
sS'digit10attempted'
p76
I0
ssS'fasdf'
p77
(dp78
S'digit4attempted'
p79
I0
sS'digit8attempted'
p80
I0
sS'digit7attempted'
p81
I0
sS'digit2attempted'
p82
I0
sS'digit6attempted'
p83
I0
sS'digit5attempted'
p84
I0
sS'digit0attempted'
p85
I0
sS'logins'
p86
(dp87
S'attempts'
p88
I1
ssS'digit9attempted'
p89
I0
sS'digit3attempted'
p90
I0
sS'time'
p91
(dp92
S'total1time'
p93
I0
sS'mean4time'
p94
I0
sS'mean5time'
p95
I0
sS'total7time'
p96
I0
sS'mean2time'
p97
I0
sS'total9time'
p98
I0
sS'total0time'
p99
I0
sS'total3time'
p100
I0
sS'total5time'
p101
I0
sS'mean8time'
p102
I0
sS'total2time'
p103
I0
sS'mean9time'
p104
I0
sS'total4time'
p105
I0
sS'mean6time'
p106
I0
sS'mean0time'
p107
I0
sS'mean7time'
p108
I0
sS'mean1time'
p109
I0
sS'mean3time'
p110
I0
sS'total6time'
p111
I0
sS'total8time'
p112
I0
ssS'digit1attempted'
p113
I0
sS'digit10attempted'
p114
I0
ssS'fsdfs'
p115
(dp116
S'digit4attempted'
p117
I1
sS'digit8attempted'
p118
I0
sS'digit7attempted'
p119
I0
sS'digit2attempted'
p120
I0
sS'digit6attempted'
p121
I0
sS'digit5attempted'
p122
I0
sS'digit0attempted'
p123
I0
sS'logins'
p124
(dp125
S'attempts'
p126
I2
ssS'digit9attempted'
p127
I0
sS'digit3attempted'
p128
I0
sS'time'
p129
(dp130
S'total1time'
p131
I0
sS'mean4time'
p132
F11.444046020507812
sS'mean5time'
p133
I0
sS'total7time'
p134
I0
sS'mean2time'
p135
I0
sS'total9time'
p136
I0
sS'total0time'
p137
I0
sS'total3time'
p138
I0
sS'total5time'
p139
I0
sS'mean8time'
p140
I0
sS'total2time'
p141
I0
sS'mean9time'
p142
I0
sS'total4time'
p143
F11.444046020507812
sS'mean6time'
p144
I0
sS'mean0time'
p145
I0
sS'mean7time'
p146
I0
sS'mean1time'
p147
I0
sS'mean3time'
p148
I0
sS'total6time'
p149
I0
sS'total8time'
p150
I0
ssS'digit1attempted'
p151
I0
sS'digit10attempted'
p152
I0
ssS'will'
p153
(dp154
S'digit4attempted'
p155
I3
sS'digit8attempted'
p156
I4
sS'digit7attempted'
p157
I2
sS'digit2attempted'
p158
I4
sS'digit6attempted'
p159
I0
sS'digit5attempted'
p160
I0
sS'digit0attempted'
p161
I0
sS'logins'
p162
(dp163
S'attempts'
p164
I7
ssS'digit9attempted'
p165
I0
sS'digit3attempted'
p166
I0
sS'time'
p167
(dp168
S'total1time'
p169
I0
sS'mean4time'
p170
F5.257922649383545
sS'mean5time'
p171
I0
sS'total7time'
p172
F29.17551016807556
sS'mean2time'
p173
F6.976233780384064
sS'total9time'
p174
I0
sS'total0time'
p175
I0
sS'total3time'
p176
I0
sS'total5time'
p177
I0
sS'mean8time'
p178
F6.986590504646301
sS'total2time'
p179
F27.904935121536255
sS'mean9time'
p180
I0
sS'total4time'
p181
F15.773767948150635
sS'mean6time'
p182
I0
sS'mean0time'
p183
I0
sS'mean7time'
p184
F14.58775508403778
sS'mean1time'
p185
I0
sS'mean3time'
p186
I0
sS'total6time'
p187
I0
sS'total8time'
p188
F27.946362018585205
ssS'digit1attempted'
p189
I0
sS'digit10attempted'
p190
I0
ssS'bleep'
p191
(dp192
S'digit4attempted'
p193
I0
sS'digit8attempted'
p194
I2
sS'digit7attempted'
p195
I0
sS'digit2attempted'
p196
I0
sS'digit6attempted'
p197
I2
sS'digit5attempted'
p198
I0
sS'digit0attempted'
p199
I0
sS'logins'
p200
(dp201
S'attempts'
p202
I1
ssS'digit9attempted'
p203
I0
sS'digit3attempted'
p204
I0
sS'time'
p205
(dp206
S'total1time'
p207
I0
sS'mean4time'
p208
F15.058527946472168
sS'mean5time'
p209
I0
sS'mean2time'
p210
I0
sS'total9time'
p211
I0
sS'mean0time'
p212
I0
sS'total3time'
p213
I0
sS'total5time'
p214
I0
sS'mean8time'
p215
F7.9106245040893555
sS'mean7time'
p216
I0
sS'total2time'
p217
I0
sS'mean9time'
p218
I0
sS'total4time'
p219
F15.058527946472168
sS'mean6time'
p220
F6.92641806602478
sS'total0time'
p221
I0
sS'total7time'
p222
I0
sS'mean1time'
p223
I0
sS'mean3time'
p224
I0
sS'total6time'
p225
F13.85283613204956
sS'total8time'
p226
F15.821249008178711
ssS'digit1attempted'
p227
I0
sS'digit10attempted'
p228
I0
ssS'asdfas'
p229
(dp230
S'digit4attempted'
p231
I2
sS'digit8attempted'
p232
I2
sS'digit7attempted'
p233
I0
sS'digit2attempted'
p234
I0
sS'digit6attempted'
p235
I0
sS'digit5attempted'
p236
I0
sS'digit0attempted'
p237
I0
sS'logins'
p238
(dp239
S'attempts'
p240
I1
ssS'digit9attempted'
p241
I0
sS'digit3attempted'
p242
I0
sS'time'
p243
(dp244
S'total1time'
p245
I0
sS'mean4time'
p246
F6.451669931411743
sS'mean5time'
p247
I0
sS'total7time'
p248
F15.044528007507324
sS'mean2time'
p249
I0
sS'total9time'
p250
I0
sS'total0time'
p251
I0
sS'total3time'
p252
I0
sS'total5time'
p253
I0
sS'mean8time'
p254
F8.758522391319275
sS'total2time'
p255
I0
sS'mean9time'
p256
I0
sS'total4time'
p257
F12.903339862823486
sS'mean6time'
p258
I0
sS'mean0time'
p259
I0
sS'mean7time'
p260
F15.044528007507324
sS'mean1time'
p261
I0
sS'mean3time'
p262
I0
sS'total6time'
p263
I0
sS'total8time'
p264
F17.51704478263855
ssS'digit1attempted'
p265
I0
sS'digit10attempted'
p266
I0
ssS'jfjfjf'
p267
(dp268
S'digit4attempted'
p269
I2
sS'digit8attempted'
p270
I2
sS'digit7attempted'
p271
I0
sS'digit2attempted'
p272
I0
sS'digit6attempted'
p273
I0
sS'digit5attempted'
p274
I0
sS'digit0attempted'
p275
I0
sS'logins'
p276
(dp277
S'attempts'
p278
I1
ssS'digit9attempted'
p279
I0
sS'digit3attempted'
p280
I0
sS'time'
p281
(dp282
S'total1time'
p283
I0
sS'mean4time'
p284
F5.825660943984985
sS'mean5time'
p285
I0
sS'total7time'
p286
I0
sS'mean2time'
p287
I0
sS'total9time'
p288
I0
sS'total0time'
p289
I0
sS'total3time'
p290
I0
sS'total5time'
p291
I0
sS'mean8time'
p292
F7.717926502227783
sS'total2time'
p293
I0
sS'mean9time'
p294
I0
sS'total4time'
p295
F11.65132188796997
sS'mean6time'
p296
I0
sS'mean0time'
p297
I0
sS'mean7time'
p298
I0
sS'mean1time'
p299
I0
sS'mean3time'
p300
I0
sS'total6time'
p301
I0
sS'total8time'
p302
F15.435853004455566
ssS'digit1attempted'
p303
I0
sS'digit10attempted'
p304
I0
ss.