(dp0
S''
p1
(dp2
S'digit7attempted'
p3
I0
sS'digit6attempted'
p4
I0
sS'digit0attempted'
p5
I0
sS'mean9time'
p6
I0
sS'digit10attempted'
p7
I0
sS'mean8time'
p8
I0
sS'logins'
p9
(dp10
S'attempts'
p11
I1
ssS'mean6time'
p12
I0
sS'mean2time'
p13
I0
sS'mean4time'
p14
I0
sS'digit8attempted'
p15
I0
sS'digit2attempted'
p16
I0
sS'mean7time'
p17
I0
sS'digit1attempted'
p18
I0
sS'mean3time'
p19
I0
sS'digit4attempted'
p20
I0
sS'mean5time'
p21
I0
sS'digit5attempted'
p22
I0
sS'digit9attempted'
p23
I0
sS'digit3attempted'
p24
I0
sS'mean0time'
p25
I0
sS'mean1time'
p26
I0
ssS'asasd'
p27
(dp28
S'digit7attempted'
p29
I2
sS'digit6attempted'
p30
I0
sS'digit0attempted'
p31
I0
sS'mean9time'
p32
I0
sS'digit10attempted'
p33
I0
sS'mean8time'
p34
I0
sS'digit8attempted'
p35
I0
sS'mean6time'
p36
I0
sS'mean2time'
p37
I0
sS'mean4time'
p38
I0
sS'logins'
p39
(dp40
S'attempts'
p41
I1
ssS'digit2attempted'
p42
I0
sS'mean7time'
p43
I0
sS'digit1attempted'
p44
I0
sS'mean3time'
p45
I0
sS'digit4attempted'
p46
I0
sS'mean5time'
p47
I0
sS'digit5attempted'
p48
I0
sS'digit9attempted'
p49
I0
sS'digit3attempted'
p50
I0
sS'mean0time'
p51
I0
sS'mean1time'
p52
I0
ssS'sadfa'
p53
(dp54
S'digit7attempted'
p55
I2
sS'digit6attempted'
p56
I0
sS'digit0attempted'
p57
I0
sS'mean9time'
p58
I0
sS'digit10attempted'
p59
I0
sS'mean8time'
p60
I0
sS'logins'
p61
(dp62
S'attempts'
p63
I1
ssS'mean6time'
p64
I0
sS'mean2time'
p65
I0
sS'mean4time'
p66
I0
sS'digit8attempted'
p67
I0
sS'digit2attempted'
p68
I0
sS'mean7time'
p69
I0
sS'digit1attempted'
p70
I0
sS'mean3time'
p71
I0
sS'digit4attempted'
p72
I0
sS'mean5time'
p73
I0
sS'digit5attempted'
p74
I0
sS'digit9attempted'
p75
I0
sS'digit3attempted'
p76
I0
sS'mean0time'
p77
I0
sS'mean1time'
p78
I0
ssS'sdfa'
p79
(dp80
S'digit7attempted'
p81
I0
sS'digit6attempted'
p82
I0
sS'digit0attempted'
p83
I2
sS'mean9time'
p84
I0
sS'digit10attempted'
p85
I0
sS'mean8time'
p86
I0
sS'digit8attempted'
p87
I0
sS'mean6time'
p88
I0
sS'mean2time'
p89
I0
sS'mean4time'
p90
I0
sS'logins'
p91
(dp92
S'attempts'
p93
I2
ssS'digit2attempted'
p94
I0
sS'mean7time'
p95
I0
sS'digit1attempted'
p96
I0
sS'mean3time'
p97
I0
sS'digit4attempted'
p98
I0
sS'mean5time'
p99
I0
sS'digit5attempted'
p100
I3
sS'digit9attempted'
p101
I0
sS'digit3attempted'
p102
I0
sS'mean0time'
p103
I0
sS'mean1time'
p104
I0
ssS"'will"
p105
(dp106
S'digit7attempted'
p107
I0
sS'digit6attempted'
p108
I0
sS'digit0attempted'
p109
I0
sS'mean9time'
p110
I0
sS'digit10attempted'
p111
I0
sS'mean8time'
p112
I0
sS'logins'
p113
(dp114
S'attempts'
p115
I1
ssS'mean6time'
p116
I0
sS'mean2time'
p117
I0
sS'mean4time'
p118
I0
sS'digit8attempted'
p119
I0
sS'digit2attempted'
p120
I0
sS'mean7time'
p121
I0
sS'digit1attempted'
p122
I0
sS'mean3time'
p123
I0
sS'digit4attempted'
p124
I0
sS'mean5time'
p125
I0
sS'digit5attempted'
p126
I0
sS'digit9attempted'
p127
I0
sS'digit3attempted'
p128
I0
sS'mean0time'
p129
I0
sS'mean1time'
p130
I0
ssS'will'
p131
(dp132
S'digit4attempted'
p133
I2
sS'digit8attempted'
p134
I4
sS'digit7attempted'
p135
I0
sS'digit2attempted'
p136
I0
sS'digit6attempted'
p137
I0
sS'digit5attempted'
p138
I4
sS'digit0attempted'
p139
I0
sS'logins'
p140
(dp141
S'attempts'
p142
I9
ssS'digit9attempted'
p143
I0
sS'digit3attempted'
p144
I0
sS'digit1attempted'
p145
I0
sS'digit10attempted'
p146
I0
ssS'test'
p147
(dp148
S'digit7attempted'
p149
I0
sS'digit6attempted'
p150
I0
sS'digit0attempted'
p151
I0
sS'mean9time'
p152
I0
sS'digit10attempted'
p153
I0
sS'mean8time'
p154
I0
sS'logins'
p155
(dp156
S'attempts'
p157
I1
ssS'mean6time'
p158
I0
sS'mean2time'
p159
I0
sS'mean4time'
p160
I0
sS'digit8attempted'
p161
I0
sS'digit2attempted'
p162
I0
sS'mean7time'
p163
I0
sS'digit1attempted'
p164
I0
sS'mean3time'
p165
I0
sS'digit4attempted'
p166
I0
sS'mean5time'
p167
I0
sS'digit5attempted'
p168
I0
sS'digit9attempted'
p169
I0
sS'digit3attempted'
p170
I0
sS'mean0time'
p171
I0
sS'mean1time'
p172
I0
ssS'sdf'
p173
(dp174
S'digit7attempted'
p175
I0
sS'digit6attempted'
p176
I0
sS'digit0attempted'
p177
I0
sS'mean9time'
p178
I0
sS'digit10attempted'
p179
I0
sS'mean8time'
p180
I0
sS'logins'
p181
(dp182
S'attempts'
p183
I1
ssS'mean6time'
p184
I0
sS'mean2time'
p185
I0
sS'mean4time'
p186
I0
sS'digit8attempted'
p187
I0
sS'digit2attempted'
p188
I0
sS'mean7time'
p189
I0
sS'digit1attempted'
p190
I0
sS'mean3time'
p191
I0
sS'digit4attempted'
p192
I0
sS'mean5time'
p193
I0
sS'digit5attempted'
p194
I0
sS'digit9attempted'
p195
I0
sS'digit3attempted'
p196
I0
sS'mean0time'
p197
I0
sS'mean1time'
p198
I0
ssS'asfda'
p199
(dp200
S'digit7attempted'
p201
I0
sS'digit6attempted'
p202
I0
sS'digit0attempted'
p203
I0
sS'mean9time'
p204
I0
sS'digit10attempted'
p205
I0
sS'mean8time'
p206
I0
sS'digit8attempted'
p207
I0
sS'mean6time'
p208
I0
sS'mean2time'
p209
I0
sS'mean4time'
p210
I0
sS'logins'
p211
(dp212
S'attempts'
p213
I1
ssS'digit2attempted'
p214
I0
sS'mean7time'
p215
I0
sS'digit1attempted'
p216
I0
sS'mean3time'
p217
I0
sS'digit4attempted'
p218
I1
sS'mean5time'
p219
I0
sS'digit5attempted'
p220
I0
sS'digit9attempted'
p221
I0
sS'digit3attempted'
p222
I0
sS'mean0time'
p223
I0
sS'mean1time'
p224
I0
ssS'asdfas'
p225
(dp226
S'digit7attempted'
p227
I0
sS'digit6attempted'
p228
I0
sS'digit0attempted'
p229
I0
sS'mean9time'
p230
I0
sS'digit10attempted'
p231
I0
sS'mean8time'
p232
I0
sS'logins'
p233
(dp234
S'attempts'
p235
I1
ssS'mean6time'
p236
I0
sS'mean2time'
p237
I0
sS'mean4time'
p238
I0
sS'digit8attempted'
p239
I0
sS'digit2attempted'
p240
I1
sS'mean7time'
p241
I0
sS'digit1attempted'
p242
I0
sS'mean3time'
p243
I0
sS'digit4attempted'
p244
I0
sS'mean5time'
p245
I0
sS'digit5attempted'
p246
I0
sS'digit9attempted'
p247
I0
sS'digit3attempted'
p248
I0
sS'mean0time'
p249
I0
sS'mean1time'
p250
I0
ssS'kjh'
p251
(dp252
S'digit7attempted'
p253
I0
sS'digit6attempted'
p254
I0
sS'digit0attempted'
p255
I0
sS'mean9time'
p256
I0
sS'digit10attempted'
p257
I0
sS'mean8time'
p258
I0
sS'digit8attempted'
p259
I0
sS'mean6time'
p260
I0
sS'mean2time'
p261
I0
sS'mean4time'
p262
I0
sS'logins'
p263
(dp264
S'attempts'
p265
I1
ssS'digit2attempted'
p266
I0
sS'mean7time'
p267
I0
sS'digit1attempted'
p268
I0
sS'mean3time'
p269
I0
sS'digit4attempted'
p270
I0
sS'mean5time'
p271
I0
sS'digit5attempted'
p272
I0
sS'digit9attempted'
p273
I0
sS'digit3attempted'
p274
I0
sS'mean0time'
p275
I0
sS'mean1time'
p276
I0
ssS'asdfa'
p277
(dp278
S'digit7attempted'
p279
I2
sS'digit6attempted'
p280
I0
sS'digit0attempted'
p281
I0
sS'mean9time'
p282
I0
sS'digit10attempted'
p283
I0
sS'mean8time'
p284
I0
sS'logins'
p285
(dp286
S'attempts'
p287
I4
ssS'mean6time'
p288
I0
sS'mean2time'
p289
I0
sS'mean4time'
p290
I0
sS'digit8attempted'
p291
I0
sS'digit2attempted'
p292
I0
sS'mean7time'
p293
I0
sS'digit1attempted'
p294
I0
sS'mean3time'
p295
I0
sS'digit4attempted'
p296
I0
sS'mean5time'
p297
I0
sS'digit5attempted'
p298
I0
sS'digit9attempted'
p299
I0
sS'digit3attempted'
p300
I0
sS'mean0time'
p301
I0
sS'mean1time'
p302
I0
ssS'fasdfa'
p303
(dp304
S'digit7attempted'
p305
I2
sS'digit6attempted'
p306
I0
sS'digit0attempted'
p307
I0
sS'mean9time'
p308
I0
sS'digit10attempted'
p309
I0
sS'mean8time'
p310
I0
sS'digit8attempted'
p311
I0
sS'mean6time'
p312
I0
sS'mean2time'
p313
I0
sS'mean4time'
p314
I0
sS'logins'
p315
(dp316
S'attempts'
p317
I1
ssS'digit2attempted'
p318
I0
sS'mean7time'
p319
I0
sS'digit1attempted'
p320
I0
sS'mean3time'
p321
I0
sS'digit4attempted'
p322
I0
sS'mean5time'
p323
I0
sS'digit5attempted'
p324
I0
sS'digit9attempted'
p325
I0
sS'digit3attempted'
p326
I0
sS'mean0time'
p327
I0
sS'mean1time'
p328
I0
ss.