(dp0
S'will'
p1
(dp2
S'digit4attempted'
p3
I2
sS'digit8attempted'
p4
I4
sS'digit7attempted'
p5
I0
sS'digit2attempted'
p6
I0
sS'digit6attempted'
p7
I0
sS'digit5attempted'
p8
I0
sS'digit0attempted'
p9
I0
sS'logins'
p10
(dp11
S'attempts'
p12
I1
ssS'digit9attempted'
p13
I0
sS'digit3attempted'
p14
I0
sS'digit1attempted'
p15
I0
sS'digit10attempted'
p16
I0
ss.