(dp0
S'bleepinson'
p1
(dp2
S'digit4attempted'
p3
I0
sS'correctAttempts'
p4
(dp5
g3
I0
sS'digit8attempted'
p6
I1
sS'digit7attempted'
p7
I0
sS'digit2attempted'
p8
I0
sS'digit6attempted'
p9
I0
sS'digit5attempted'
p10
I0
sS'digit0attempted'
p11
I0
sS'digit9attempted'
p12
I0
sS'digit3attempted'
p13
I0
sS'digit1attempted'
p14
I0
sS'digit10attempted'
p15
I0
ssg6
I1
sg7
I0
sg8
I0
sg9
I0
sg10
I0
sg11
I0
sS'logins'
p16
(dp17
S'attempts'
p18
I1
ssg12
I0
sg13
I0
sS'time'
p19
(dp20
S'total1time'
p21
I0
sS'mean4time'
p22
I0
sS'mean5time'
p23
I0
sS'mean2time'
p24
I0
sS'total9time'
p25
I0
sS'mean0time'
p26
I0
sS'total3time'
p27
I0
sS'total5time'
p28
I0
sS'mean8time'
p29
F11.68554401397705
sS'mean7time'
p30
I0
sS'total2time'
p31
I0
sS'mean9time'
p32
I0
sS'total4time'
p33
I0
sS'mean6time'
p34
I0
sS'total0time'
p35
I0
sS'total7time'
p36
I0
sS'mean1time'
p37
I0
sS'mean3time'
p38
I0
sS'total6time'
p39
I0
sS'total8time'
p40
F11.68554401397705
ssg14
I0
sg15
I0
ssS'newoer'
p41
(dp42
S'digit8attempted'
p43
I0
sS'digit7attempted'
p44
I0
sS'digit2attempted'
p45
I0
sS'digit6attempted'
p46
I0
sS'digit0attempted'
p47
I0
sS'digit1attempted'
p48
I0
sS'digit10attempted'
p49
I0
sS'digit4attempted'
p50
I0
sS'correctAttempts'
p51
(dp52
g43
I0
sg44
I0
sg45
I0
sg46
I0
sg47
I0
sg48
I0
sg49
I0
sg50
I0
sS'digit5attempted'
p53
I0
sS'digit9attempted'
p54
I0
sS'digit3attempted'
p55
I0
ssg53
I0
sS'logins'
p56
(dp57
S'attempts'
p58
I1
ssg54
I0
sg55
I0
sS'time'
p59
(dp60
S'total1time'
p61
I0
sS'mean4time'
p62
I0
sS'mean5time'
p63
I0
sS'mean2time'
p64
I0
sS'total7time'
p65
I0
sS'total0time'
p66
I0
sS'total3time'
p67
I0
sS'total5time'
p68
I0
sS'mean8time'
p69
I0
sS'total9time'
p70
I0
sS'total2time'
p71
I0
sS'mean9time'
p72
I0
sS'total4time'
p73
I0
sS'mean6time'
p74
I0
sS'mean0time'
p75
I0
sS'mean7time'
p76
I0
sS'mean1time'
p77
I0
sS'mean3time'
p78
I0
sS'total6time'
p79
I0
sS'total8time'
p80
I0
sssS'bill'
p81
(dp82
S'digit4attempted'
p83
I1
sS'correctAttempts'
p84
(dp85
g83
I1
sS'digit8attempted'
p86
I4
sS'digit7attempted'
p87
I1
sS'digit2attempted'
p88
I1
sS'digit6attempted'
p89
I1
sS'digit5attempted'
p90
I1
sS'digit0attempted'
p91
I1
sS'digit9attempted'
p92
I0
sS'digit3attempted'
p93
I0
sS'digit1attempted'
p94
I0
sS'digit10attempted'
p95
I0
ssg86
I8
sg87
I1
sg88
I1
sg89
I1
sg90
I1
sg91
I1
sS'logins'
p96
(dp97
S'attempts'
p98
I9
ssg92
I0
sg93
I0
sS'time'
p99
(dp100
S'total1time'
p101
I0
sS'mean4time'
p102
F7.682067155838013
sS'mean5time'
p103
F4.995997905731201
sS'mean2time'
p104
F5.053068161010742
sS'total9time'
p105
I0
sS'mean0time'
p106
F5.808215141296387
sS'total3time'
p107
I0
sS'total5time'
p108
F4.995997905731201
sS'mean8time'
p109
F10.223887354135513
sS'mean7time'
p110
F5.050302982330322
sS'total2time'
p111
F5.053068161010742
sS'mean9time'
p112
I0
sS'total4time'
p113
F7.682067155838013
sS'mean6time'
p114
F5.587056875228882
sS'total0time'
p115
F5.808215141296387
sS'total7time'
p116
F5.050302982330322
sS'mean1time'
p117
I0
sS'mean3time'
p118
I0
sS'total6time'
p119
F5.587056875228882
sS'total8time'
p120
F81.7910988330841
ssg94
I0
sg95
I0
ssS'will'
p121
(dp122
S'digit4attempted'
p123
I0
sS'correctAttempts'
p124
(dp125
g123
I0
sS'digit8attempted'
p126
I2
sS'digit7attempted'
p127
I0
sS'digit2attempted'
p128
I0
sS'digit6attempted'
p129
I0
sS'digit5attempted'
p130
I0
sS'digit0attempted'
p131
I0
sS'digit9attempted'
p132
I0
sS'digit3attempted'
p133
I0
sS'digit1attempted'
p134
I0
sS'digit10attempted'
p135
I0
ssg126
I2
sg127
I0
sg128
I0
sg129
I0
sg130
I0
sg131
I0
sS'logins'
p136
(dp137
S'attempts'
p138
I3
ssg132
I0
sg133
I0
sS'time'
p139
(dp140
S'total1time'
p141
I0
sS'mean4time'
p142
I0
sS'mean5time'
p143
I0
sS'mean2time'
p144
I0
sS'total9time'
p145
I0
sS'mean0time'
p146
I0
sS'total3time'
p147
I0
sS'total5time'
p148
I0
sS'mean8time'
p149
F10.34200394153595
sS'mean7time'
p150
I0
sS'total2time'
p151
I0
sS'mean9time'
p152
I0
sS'total4time'
p153
I0
sS'mean6time'
p154
I0
sS'total0time'
p155
I0
sS'total7time'
p156
I0
sS'mean1time'
p157
I0
sS'mean3time'
p158
I0
sS'total6time'
p159
I0
sS'total8time'
p160
F20.6840078830719
ssg134
I0
sg135
I0
ssS'jack'
p161
(dp162
S'digit4attempted'
p163
I0
sS'correctAttempts'
p164
(dp165
g163
I0
sS'digit8attempted'
p166
I0
sS'digit7attempted'
p167
I0
sS'digit2attempted'
p168
I0
sS'digit6attempted'
p169
I0
sS'digit5attempted'
p170
I0
sS'digit0attempted'
p171
I0
sS'digit9attempted'
p172
I0
sS'digit3attempted'
p173
I0
sS'digit1attempted'
p174
I0
sS'digit10attempted'
p175
I0
ssg166
I1
sg167
I0
sg168
I0
sg169
I0
sg170
I0
sg171
I0
sS'logins'
p176
(dp177
S'attempts'
p178
I2
ssg172
I0
sg173
I0
sS'time'
p179
(dp180
S'total1time'
p181
I0
sS'mean4time'
p182
I0
sS'mean5time'
p183
I0
sS'mean2time'
p184
I0
sS'total9time'
p185
I0
sS'mean0time'
p186
I0
sS'total3time'
p187
I0
sS'total5time'
p188
I0
sS'mean8time'
p189
F15.883395195007324
sS'mean7time'
p190
I0
sS'total2time'
p191
I0
sS'mean9time'
p192
I0
sS'total4time'
p193
I0
sS'mean6time'
p194
I0
sS'total0time'
p195
I0
sS'total7time'
p196
I0
sS'mean1time'
p197
I0
sS'mean3time'
p198
I0
sS'total6time'
p199
I0
sS'total8time'
p200
F15.883395195007324
ssg174
I0
sg175
I0
ssS'newguy'
p201
(dp202
S'digit4attempted'
p203
I0
sS'correctAttempts'
p204
(dp205
g203
I0
sS'digit8attempted'
p206
I0
sS'digit7attempted'
p207
I0
sS'digit2attempted'
p208
I0
sS'digit6attempted'
p209
I0
sS'digit5attempted'
p210
I0
sS'digit0attempted'
p211
I0
sS'digit9attempted'
p212
I0
sS'digit3attempted'
p213
I0
sS'digit1attempted'
p214
I0
sS'digit10attempted'
p215
I0
ssg206
I1
sg207
I0
sg208
I0
sg209
I0
sg210
I0
sg211
I0
sS'logins'
p216
(dp217
S'attempts'
p218
I1
ssg212
I0
sg213
I0
sS'time'
p219
(dp220
S'total1time'
p221
I0
sS'mean4time'
p222
I0
sS'mean5time'
p223
I0
sS'mean2time'
p224
I0
sS'total9time'
p225
I0
sS'mean0time'
p226
I0
sS'total3time'
p227
I0
sS'total5time'
p228
I0
sS'mean8time'
p229
F15.002647876739502
sS'mean7time'
p230
I0
sS'total2time'
p231
I0
sS'mean9time'
p232
I0
sS'total4time'
p233
I0
sS'mean6time'
p234
I0
sS'total0time'
p235
I0
sS'total7time'
p236
I0
sS'mean1time'
p237
I0
sS'mean3time'
p238
I0
sS'total6time'
p239
I0
sS'total8time'
p240
F15.002647876739502
ssg214
I0
sg215
I0
ss.