(dp0
S'will'
p1
(dp2
S'digit4attempted'
p3
I3
sS'digit8attempted'
p4
I4
sS'digit7attempted'
p5
I2
sS'digit2attempted'
p6
I0
sS'digit6attempted'
p7
I0
sS'digit5attempted'
p8
I0
sS'digit0attempted'
p9
I0
sS'logins'
p10
(dp11
S'attempts'
p12
I6
ssS'digit9attempted'
p13
I0
sS'digit3attempted'
p14
I0
sS'time'
p15
(dp16
S'total1time'
p17
I0
sS'mean4time'
p18
F5.257922649383545
sS'mean5time'
p19
I0
sS'total7time'
p20
F29.17551016807556
sS'mean2time'
p21
I0
sS'total9time'
p22
I0
sS'total0time'
p23
I0
sS'total3time'
p24
I0
sS'total5time'
p25
I0
sS'mean8time'
p26
F6.986590504646301
sS'total2time'
p27
I0
sS'mean9time'
p28
I0
sS'total4time'
p29
F15.773767948150635
sS'mean6time'
p30
I0
sS'mean0time'
p31
I0
sS'mean7time'
p32
F14.58775508403778
sS'mean1time'
p33
I0
sS'mean3time'
p34
I0
sS'total6time'
p35
I0
sS'total8time'
p36
F27.946362018585205
ssS'digit1attempted'
p37
I0
sS'digit10attempted'
p38
I0
ssS'fas'
p39
(dp40
S'digit4attempted'
p41
I0
sS'digit8attempted'
p42
I1
sS'digit7attempted'
p43
I0
sS'digit2attempted'
p44
I0
sS'digit6attempted'
p45
I0
sS'digit5attempted'
p46
I0
sS'digit0attempted'
p47
I0
sS'logins'
p48
(dp49
S'attempts'
p50
I1
ssS'digit9attempted'
p51
I0
sS'digit3attempted'
p52
I0
sS'time'
p53
(dp54
S'total1time'
p55
I0
sS'mean4time'
p56
I0
sS'mean5time'
p57
I0
sS'mean2time'
p58
I0
sS'total9time'
p59
I0
sS'mean0time'
p60
I0
sS'total3time'
p61
I0
sS'total5time'
p62
I0
sS'mean8time'
p63
F14.6217041015625
sS'mean7time'
p64
I0
sS'total2time'
p65
I0
sS'mean9time'
p66
I0
sS'total4time'
p67
I0
sS'mean6time'
p68
I0
sS'total0time'
p69
I0
sS'total7time'
p70
I0
sS'mean1time'
p71
I0
sS'mean3time'
p72
I0
sS'total6time'
p73
I0
sS'total8time'
p74
F14.6217041015625
ssS'digit1attempted'
p75
I0
sS'digit10attempted'
p76
I0
ssS'fasdf'
p77
(dp78
S'digit4attempted'
p79
I0
sS'digit8attempted'
p80
I0
sS'digit7attempted'
p81
I0
sS'digit2attempted'
p82
I0
sS'digit6attempted'
p83
I0
sS'digit5attempted'
p84
I0
sS'digit0attempted'
p85
I0
sS'logins'
p86
(dp87
S'attempts'
p88
I1
ssS'digit9attempted'
p89
I0
sS'digit3attempted'
p90
I0
sS'time'
p91
(dp92
S'total1time'
p93
I0
sS'mean4time'
p94
I0
sS'mean5time'
p95
I0
sS'total7time'
p96
I0
sS'mean2time'
p97
I0
sS'total9time'
p98
I0
sS'total0time'
p99
I0
sS'total3time'
p100
I0
sS'total5time'
p101
I0
sS'mean8time'
p102
I0
sS'total2time'
p103
I0
sS'mean9time'
p104
I0
sS'total4time'
p105
I0
sS'mean6time'
p106
I0
sS'mean0time'
p107
I0
sS'mean7time'
p108
I0
sS'mean1time'
p109
I0
sS'mean3time'
p110
I0
sS'total6time'
p111
I0
sS'total8time'
p112
I0
ssS'digit1attempted'
p113
I0
sS'digit10attempted'
p114
I0
ssS'sdfas'
p115
(dp116
S'digit4attempted'
p117
I0
sS'digit8attempted'
p118
I1
sS'digit7attempted'
p119
I0
sS'digit2attempted'
p120
I0
sS'digit6attempted'
p121
I0
sS'digit5attempted'
p122
I0
sS'digit0attempted'
p123
I0
sS'logins'
p124
(dp125
S'attempts'
p126
I1
ssS'digit9attempted'
p127
I0
sS'digit3attempted'
p128
I0
sS'time'
p129
(dp130
S'total1time'
p131
I0
sS'mean4time'
p132
I0
sS'mean5time'
p133
I0
sS'mean2time'
p134
I0
sS'total9time'
p135
I0
sS'mean0time'
p136
I0
sS'total3time'
p137
I0
sS'total5time'
p138
I0
sS'mean8time'
p139
F11.203527927398682
sS'mean7time'
p140
I0
sS'total2time'
p141
I0
sS'mean9time'
p142
I0
sS'total4time'
p143
I0
sS'mean6time'
p144
I0
sS'total0time'
p145
I0
sS'total7time'
p146
I0
sS'mean1time'
p147
I0
sS'mean3time'
p148
I0
sS'total6time'
p149
I0
sS'total8time'
p150
F11.203527927398682
ssS'digit1attempted'
p151
I0
sS'digit10attempted'
p152
I0
ssS'fsdfs'
p153
(dp154
S'digit4attempted'
p155
I1
sS'digit8attempted'
p156
I0
sS'digit7attempted'
p157
I0
sS'digit2attempted'
p158
I0
sS'digit6attempted'
p159
I0
sS'digit5attempted'
p160
I0
sS'digit0attempted'
p161
I0
sS'logins'
p162
(dp163
S'attempts'
p164
I2
ssS'digit9attempted'
p165
I0
sS'digit3attempted'
p166
I0
sS'time'
p167
(dp168
S'total1time'
p169
I0
sS'mean4time'
p170
F11.444046020507812
sS'mean5time'
p171
I0
sS'total7time'
p172
I0
sS'mean2time'
p173
I0
sS'total9time'
p174
I0
sS'total0time'
p175
I0
sS'total3time'
p176
I0
sS'total5time'
p177
I0
sS'mean8time'
p178
I0
sS'total2time'
p179
I0
sS'mean9time'
p180
I0
sS'total4time'
p181
F11.444046020507812
sS'mean6time'
p182
I0
sS'mean0time'
p183
I0
sS'mean7time'
p184
I0
sS'mean1time'
p185
I0
sS'mean3time'
p186
I0
sS'total6time'
p187
I0
sS'total8time'
p188
I0
ssS'digit1attempted'
p189
I0
sS'digit10attempted'
p190
I0
ss.