(dp0
S'will'
p1
(dp2
S'digit4attempted'
p3
I0
sS'digit8attempted'
p4
I1
sS'digit7attempted'
p5
I0
sS'digit2attempted'
p6
I0
sS'digit6attempted'
p7
I0
sS'digit5attempted'
p8
I0
sS'digit0attempted'
p9
I0
sS'logins'
p10
(dp11
S'attempts'
p12
I1
ssS'digit9attempted'
p13
I0
sS'digit3attempted'
p14
I0
sS'time'
p15
(dp16
S'total1time'
p17
I0
sS'mean4time'
p18
I0
sS'mean5time'
p19
I0
sS'mean2time'
p20
I0
sS'total9time'
p21
I0
sS'mean0time'
p22
I0
sS'total3time'
p23
I0
sS'total5time'
p24
I0
sS'mean8time'
p25
F5.750747919082642
sS'mean7time'
p26
I0
sS'total2time'
p27
I0
sS'mean9time'
p28
I0
sS'total4time'
p29
I0
sS'mean6time'
p30
I0
sS'total0time'
p31
I0
sS'total7time'
p32
I0
sS'mean1time'
p33
I0
sS'mean3time'
p34
I0
sS'total6time'
p35
I0
sS'total8time'
p36
F5.750747919082642
ssS'digit1attempted'
p37
I0
sS'digit10attempted'
p38
I0
ssS'jason'
p39
(dp40
S'digit4attempted'
p41
I0
sS'digit8attempted'
p42
I2
sS'digit7attempted'
p43
I0
sS'digit2attempted'
p44
I0
sS'digit6attempted'
p45
I0
sS'digit5attempted'
p46
I0
sS'digit0attempted'
p47
I0
sS'logins'
p48
(dp49
S'attempts'
p50
I1
ssS'digit9attempted'
p51
I0
sS'digit3attempted'
p52
I0
sS'time'
p53
(dp54
S'total1time'
p55
I0
sS'mean4time'
p56
I0
sS'mean5time'
p57
I0
sS'total7time'
p58
I0
sS'mean2time'
p59
I0
sS'total9time'
p60
I0
sS'total0time'
p61
I0
sS'total3time'
p62
I0
sS'total5time'
p63
I0
sS'mean8time'
p64
F3.7870655059814453
sS'total2time'
p65
I0
sS'mean9time'
p66
I0
sS'total4time'
p67
I0
sS'mean6time'
p68
I0
sS'mean0time'
p69
I0
sS'mean7time'
p70
I0
sS'mean1time'
p71
I0
sS'mean3time'
p72
I0
sS'total6time'
p73
I0
sS'total8time'
p74
F7.574131011962891
ssS'digit1attempted'
p75
I0
sS'digit10attempted'
p76
I0
ss.