(dp0
S'sdfas'
p1
(dp2
S'digit4attempted'
p3
I0
sS'digit8attempted'
p4
I1
sS'digit7attempted'
p5
I0
sS'digit2attempted'
p6
I0
sS'digit6attempted'
p7
I0
sS'digit5attempted'
p8
I0
sS'digit0attempted'
p9
I0
sS'logins'
p10
(dp11
S'attempts'
p12
I1
ssS'digit9attempted'
p13
I0
sS'digit3attempted'
p14
I0
sS'time'
p15
(dp16
S'total1time'
p17
I0
sS'mean4time'
p18
I0
sS'mean5time'
p19
I0
sS'mean2time'
p20
I0
sS'total9time'
p21
I0
sS'mean0time'
p22
I0
sS'total3time'
p23
I0
sS'total5time'
p24
I0
sS'mean8time'
p25
F4.252947092056274
sS'mean7time'
p26
I0
sS'total2time'
p27
I0
sS'mean9time'
p28
I0
sS'total4time'
p29
I0
sS'mean6time'
p30
I0
sS'total0time'
p31
I0
sS'total7time'
p32
I0
sS'mean1time'
p33
I0
sS'mean3time'
p34
I0
sS'total6time'
p35
I0
sS'total8time'
p36
F4.252947092056274
ssS'digit1attempted'
p37
I0
sS'digit10attempted'
p38
I0
ssS'Will'
p39
(dp40
S'digit4attempted'
p41
I0
sS'digit8attempted'
p42
I2
sS'digit7attempted'
p43
I0
sS'digit2attempted'
p44
I0
sS'digit6attempted'
p45
I0
sS'digit5attempted'
p46
I0
sS'digit0attempted'
p47
I0
sS'logins'
p48
(dp49
S'attempts'
p50
I1
ssS'digit9attempted'
p51
I0
sS'digit3attempted'
p52
I0
sS'time'
p53
(dp54
S'total1time'
p55
I0
sS'mean4time'
p56
I0
sS'mean5time'
p57
I0
sS'mean2time'
p58
I0
sS'total9time'
p59
I0
sS'mean0time'
p60
I0
sS'total3time'
p61
I0
sS'total5time'
p62
I0
sS'mean8time'
p63
F6.4089871644973755
sS'mean7time'
p64
I0
sS'total2time'
p65
I0
sS'mean9time'
p66
I0
sS'total4time'
p67
I0
sS'mean6time'
p68
I0
sS'total0time'
p69
I0
sS'total7time'
p70
I0
sS'mean1time'
p71
I0
sS'mean3time'
p72
I0
sS'total6time'
p73
I0
sS'total8time'
p74
F12.817974328994751
ssS'digit1attempted'
p75
I0
sS'digit10attempted'
p76
I0
ssS'chet'
p77
(dp78
S'digit4attempted'
p79
I0
sS'digit8attempted'
p80
I1
sS'digit7attempted'
p81
I0
sS'digit2attempted'
p82
I0
sS'digit6attempted'
p83
I0
sS'digit5attempted'
p84
I0
sS'digit0attempted'
p85
I0
sS'logins'
p86
(dp87
S'attempts'
p88
I1
ssS'digit9attempted'
p89
I0
sS'digit3attempted'
p90
I0
sS'time'
p91
(dp92
S'total1time'
p93
I0
sS'mean4time'
p94
I0
sS'mean5time'
p95
I0
sS'total7time'
p96
I0
sS'mean2time'
p97
I0
sS'total9time'
p98
I0
sS'total0time'
p99
I0
sS'total3time'
p100
I0
sS'total5time'
p101
I0
sS'mean8time'
p102
F6.131820917129517
sS'total2time'
p103
I0
sS'mean9time'
p104
I0
sS'total4time'
p105
I0
sS'mean6time'
p106
I0
sS'mean0time'
p107
I0
sS'mean7time'
p108
I0
sS'mean1time'
p109
I0
sS'mean3time'
p110
I0
sS'total6time'
p111
I0
sS'total8time'
p112
F6.131820917129517
ssS'digit1attempted'
p113
I0
sS'digit10attempted'
p114
I0
ssS'asdfa'
p115
(dp116
S'digit4attempted'
p117
I1
sS'digit8attempted'
p118
I4
sS'digit7attempted'
p119
I0
sS'digit2attempted'
p120
I0
sS'digit6attempted'
p121
I0
sS'digit5attempted'
p122
I0
sS'digit0attempted'
p123
I0
sS'logins'
p124
(dp125
S'attempts'
p126
I1
ssS'digit9attempted'
p127
I0
sS'digit3attempted'
p128
I0
sS'time'
p129
(dp130
S'total1time'
p131
I0
sS'mean4time'
p132
F2.9849112033843994
sS'mean5time'
p133
I0
sS'total7time'
p134
I0
sS'mean2time'
p135
I0
sS'total9time'
p136
I0
sS'total0time'
p137
I0
sS'total3time'
p138
I0
sS'total5time'
p139
I0
sS'mean8time'
p140
F4.255998015403748
sS'total2time'
p141
I0
sS'mean9time'
p142
I0
sS'total4time'
p143
F2.9849112033843994
sS'mean6time'
p144
I0
sS'mean0time'
p145
I0
sS'mean7time'
p146
I0
sS'mean1time'
p147
I0
sS'mean3time'
p148
I0
sS'total6time'
p149
I0
sS'total8time'
p150
F17.02399206161499
ssS'digit1attempted'
p151
I0
sS'digit10attempted'
p152
I0
ssS'will'
p153
(dp154
S'digit4attempted'
p155
I1
sS'digit8attempted'
p156
I1
sS'digit7attempted'
p157
I0
sS'digit2attempted'
p158
I0
sS'digit6attempted'
p159
I0
sS'digit5attempted'
p160
I0
sS'digit0attempted'
p161
I0
sS'logins'
p162
(dp163
S'attempts'
p164
I2
ssS'digit9attempted'
p165
I0
sS'digit3attempted'
p166
I0
sS'time'
p167
(dp168
S'total1time'
p169
I0
sS'mean4time'
p170
F8.29705810546875
sS'mean5time'
p171
I0
sS'total7time'
p172
I0
sS'mean2time'
p173
I0
sS'total9time'
p174
I0
sS'total0time'
p175
I0
sS'total3time'
p176
I0
sS'total5time'
p177
I0
sS'mean8time'
p178
F8.371642112731934
sS'total2time'
p179
I0
sS'mean9time'
p180
I0
sS'total4time'
p181
F8.29705810546875
sS'mean6time'
p182
I0
sS'mean0time'
p183
I0
sS'mean7time'
p184
I0
sS'mean1time'
p185
I0
sS'mean3time'
p186
I0
sS'total6time'
p187
I0
sS'total8time'
p188
F8.371642112731934
ssS'digit1attempted'
p189
I0
sS'digit10attempted'
p190
I0
ssS'new'
p191
(dp192
S'digit4attempted'
p193
I0
sS'digit8attempted'
p194
I3
sS'digit7attempted'
p195
I0
sS'digit2attempted'
p196
I0
sS'digit6attempted'
p197
I0
sS'digit5attempted'
p198
I0
sS'digit0attempted'
p199
I0
sS'logins'
p200
(dp201
S'attempts'
p202
I1
ssS'digit9attempted'
p203
I0
sS'digit3attempted'
p204
I0
sS'time'
p205
(dp206
S'total1time'
p207
I0
sS'mean4time'
p208
I0
sS'mean5time'
p209
I0
sS'total7time'
p210
I0
sS'mean2time'
p211
I0
sS'total9time'
p212
I0
sS'total0time'
p213
I0
sS'total3time'
p214
I0
sS'total5time'
p215
I0
sS'mean8time'
p216
F4.5333886941274
sS'total2time'
p217
I0
sS'mean9time'
p218
I0
sS'total4time'
p219
I0
sS'mean6time'
p220
I0
sS'mean0time'
p221
I0
sS'mean7time'
p222
I0
sS'mean1time'
p223
I0
sS'mean3time'
p224
I0
sS'total6time'
p225
I0
sS'total8time'
p226
F13.600166082382202
ssS'digit1attempted'
p227
I0
sS'digit10attempted'
p228
I0
ssS'sdfasdfasdfa'
p229
(dp230
S'digit4attempted'
p231
I0
sS'digit8attempted'
p232
I0
sS'digit7attempted'
p233
I0
sS'digit2attempted'
p234
I0
sS'digit6attempted'
p235
I0
sS'digit5attempted'
p236
I0
sS'digit0attempted'
p237
I0
sS'logins'
p238
(dp239
S'attempts'
p240
I1
ssS'digit9attempted'
p241
I0
sS'digit3attempted'
p242
I0
sS'time'
p243
(dp244
S'total1time'
p245
I0
sS'mean4time'
p246
I0
sS'mean5time'
p247
I0
sS'mean2time'
p248
I0
sS'total9time'
p249
I0
sS'mean0time'
p250
I0
sS'total3time'
p251
I0
sS'total5time'
p252
I0
sS'mean8time'
p253
I0
sS'mean7time'
p254
I0
sS'total2time'
p255
I0
sS'mean9time'
p256
I0
sS'total4time'
p257
I0
sS'mean6time'
p258
I0
sS'total0time'
p259
I0
sS'total7time'
p260
I0
sS'mean1time'
p261
I0
sS'mean3time'
p262
I0
sS'total6time'
p263
I0
sS'total8time'
p264
I0
ssS'digit1attempted'
p265
I0
sS'digit10attempted'
p266
I0
ss.