(dp0
S'Will'
p1
(dp2
S'digit4attempted'
p3
I0
sS'digit8attempted'
p4
I0
sS'digit7attempted'
p5
I0
sS'digit2attempted'
p6
I0
sS'digit6attempted'
p7
I0
sS'digit5attempted'
p8
I1
sS'digit0attempted'
p9
I1
sS'logins'
p10
I1
sS'digit9attempted'
p11
I0
sS'digit3attempted'
p12
I2
sS'digit1attempted'
p13
I0
ss.