(dp0
S'will'
p1
(dp2
S'digit7attempted'
p3
I4
sS'digit6attempted'
p4
I2
sS'digit0attempted'
p5
I0
sS'mean9time'
p6
I0
sS'digit10attempted'
p7
I0
sS'mean8time'
p8
I0
sS'digit8attempted'
p9
I0
sS'mean6time'
p10
F12.000145173878822
sS'mean2time'
p11
I0
sS'mean4time'
p12
I0
sS'logins'
p13
(dp14
S'attempts'
p15
I1
ssS'digit2attempted'
p16
I0
sS'mean7time'
p17
F4.176037817474616
sS'digit1attempted'
p18
I0
sS'mean3time'
p19
I0
sS'digit4attempted'
p20
I0
sS'mean5time'
p21
I0
sS'digit5attempted'
p22
I0
sS'digit9attempted'
p23
I0
sS'digit3attempted'
p24
I0
sS'mean0time'
p25
I0
sS'mean1time'
p26
I0
ss.