(dp0
S'tom'
p1
(dp2
S'digit4attempted'
p3
I4
sS'correctAttempts'
p4
(dp5
g3
I4
sS'digit8attempted'
p6
I4
sS'digit7attempted'
p7
I5
sS'digit2attempted'
p8
I4
sS'digit6attempted'
p9
I4
sS'digit5attempted'
p10
I5
sS'digit0attempted'
p11
I4
sS'digit9attempted'
p12
I4
sS'digit3attempted'
p13
I4
sS'digit1attempted'
p14
I4
sS'digit10attempted'
p15
I500000000
ssg6
I4
sg7
I5
sg8
I4
sg9
I4
sg10
I5
sg11
I5
sS'logins'
p16
(dp17
S'attempts'
p18
I1
ssg12
I4
sg13
I4
sS'time'
p19
(dp20
S'total1time'
p21
F37.56140494346619
sS'mean4time'
p22
I0
sS'mean5time'
p23
F5.741734981536865
sS'total7time'
p24
F10.399407148361206
sS'mean2time'
p25
I0
sS'total9time'
p26
I0
sS'total0time'
p27
F35.78111171722412
sS'total3time'
p28
I0
sS'total5time'
p29
F5.741734981536865
sS'mean8time'
p30
I0
sS'total2time'
p31
I0
sS'mean9time'
p32
I0
sS'total4time'
p33
I0
sS'mean6time'
p34
I0
sS'mean0time'
p35
F7.156222343444824
sS'mean7time'
p36
F10.399407148361206
sS'mean1time'
p37
F7.512280988693237
sS'mean3time'
p38
I0
sS'total6time'
p39
I0
sS'total8time'
p40
I0
ssg14
I5
sg15
I50000000
ss.