(dp0
S'Will'
p1
(dp2
S'digit4attempted'
p3
I1
sS'digit8attempted'
p4
I1
sS'digit7attempted'
p5
I1
sS'digit2attempted'
p6
I0
sS'digit6attempted'
p7
I2
sS'digit5attempted'
p8
I0
sS'digit0attempted'
p9
I0
sS'logins'
p10
I2
sS'digit9attempted'
p11
I0
sS'digit3attempted'
p12
I0
sS'digit1attempted'
p13
I2
ss.