(dp0
S'Will'
p1
(dp2
S'digit4attempted'
p3
I2
sS'digit8attempted'
p4
I4
sS'digit7attempted'
p5
I0
sS'digit2attempted'
p6
I0
sS'digit6attempted'
p7
I0
sS'digit5attempted'
p8
I0
sS'digit0attempted'
p9
I0
sS'logins'
p10
(dp11
S'attempts'
p12
I1
ssS'digit9attempted'
p13
I0
sS'digit3attempted'
p14
I0
sS'time'
p15
(dp16
S'total1time'
p17
I0
sS'mean4time'
p18
F3.6294374465942383
sS'mean5time'
p19
I0
sS'total7time'
p20
I0
sS'mean2time'
p21
I0
sS'total9time'
p22
I0
sS'total0time'
p23
I0
sS'total3time'
p24
I0
sS'total5time'
p25
I0
sS'mean8time'
p26
F5.85807204246521
sS'total2time'
p27
I0
sS'mean9time'
p28
I0
sS'total4time'
p29
F7.258874893188477
sS'mean6time'
p30
I0
sS'mean0time'
p31
I0
sS'mean7time'
p32
I0
sS'mean1time'
p33
I0
sS'mean3time'
p34
I0
sS'total6time'
p35
I0
sS'total8time'
p36
F23.43228816986084
ssS'digit1attempted'
p37
I0
sS'digit10attempted'
p38
I0
ss.