(dp0
S'1'
p1
(dp2
sS'0'
p3
(dp4
sS'3'
p5
(dp6
sS'2'
p7
(dp8
S'will'
p9
I6
ssS'5'
p10
(dp11
sS'4'
p12
(dp13
S'will'
p14
I5
sS'bleep'
p15
I15
sS'asdfas'
p16
I6
sS'jfjfjf'
p17
I5
sS'fsdfs'
p18
I11
ssS'7'
p19
(dp20
S'will'
p21
I14
sS'asdfas'
p22
I15
ssS'6'
p23
(dp24
S'bleep'
p25
I6
ssS'9'
p26
(dp27
sS'8'
p28
(dp29
S'sdfas'
p30
I11
sS'fas'
p31
I14
sS'will'
p32
I6
sS'bleep'
p33
I7
sS'asdfas'
p34
I8
sS'jfjfjf'
p35
I7
ss.