(dp0
S'1'
p1
(dp2
sS'0'
p3
(dp4
sS'3'
p5
(dp6
sS'2'
p7
(dp8
sS'5'
p9
(dp10
sS'4'
p11
(dp12
S'will'
p13
I5
sS'fsdfs'
p14
I11
ssS'7'
p15
(dp16
S'will'
p17
I14
ssS'6'
p18
(dp19
sS'9'
p20
(dp21
sS'8'
p22
(dp23
S'will'
p24
I6
sS'fas'
p25
I14
sS'sdfas'
p26
I11
ss.