(dp0
S'1'
p1
(dp2
sS'0'
p3
(dp4
sS'3'
p5
(dp6
sS'2'
p7
(dp8
sS'5'
p9
(dp10
sS'4'
p11
(dp12
S'will'
p13
I8
sS'asdfa'
p14
I2
ssS'7'
p15
(dp16
sS'6'
p17
(dp18
sS'9'
p19
(dp20
sS'8'
p21
(dp22
S'sdfas'
p23
I4
sS'will'
p24
I8
sS'chet'
p25
I6
sS'asdfa'
p26
I4
sS'Will'
p27
I6
sS'new'
p28
I4
ss.