(dp0
S'1'
p1
(dp2
sS'0'
p3
(dp4
sS'3'
p5
(dp6
sS'2'
p7
(dp8
sS'5'
p9
(dp10
sS'4'
p11
(dp12
S'will'
p13
I5
ssS'7'
p14
(dp15
S'will'
p16
I5
ssS'6'
p17
(dp18
sS'9'
p19
(dp20
sS'8'
p21
(dp22
S'will'
p23
I14
ss.