(dp0
S'1'
p1
(dp2
S'tom'
p3
I7
ssS'0'
p4
(dp5
S'tom'
p6
I7
ssS'3'
p7
(dp8
sS'2'
p9
(dp10
sS'5'
p11
(dp12
S'tom'
p13
I5
ssS'4'
p14
(dp15
sS'7'
p16
(dp17
S'tom'
p18
I10
ssS'6'
p19
(dp20
sS'9'
p21
(dp22
sS'8'
p23
(dp24
s.