(dp0
S'1'
p1
(dp2
sS'0'
p3
(dp4
S'bill'
p5
I5
ssS'3'
p6
(dp7
sS'2'
p8
(dp9
S'bill'
p10
I5
ssS'5'
p11
(dp12
S'bill'
p13
I4
ssS'4'
p14
(dp15
S'bill'
p16
I7
ssS'7'
p17
(dp18
S'bill'
p19
I5
ssS'6'
p20
(dp21
S'bill'
p22
I5
ssS'9'
p23
(dp24
sS'8'
p25
(dp26
S'will'
p27
I10
sS'bleepinson'
p28
I11
sS'bill'
p29
I10
sS'jack'
p30
I15
sS'newguy'
p31
I15
ss.